target datalayout = "e-m:e-p270:32:32-p271:32:32-p272:64:64-i64:64-i128:128-f80:128-n8:16:32:64-S128"
target triple = "x86_64-pc-linux-gnu"

%"class.std::__cxx11::basic_string" = type { %"struct.std::__cxx11::basic_string<char>::_Alloc_hider", i64, %union.anon }
%"struct.std::__cxx11::basic_string<char>::_Alloc_hider" = type { ptr }
%union.anon = type { i64, [8 x i8] }
%"class.osgeo::proj::util::PropertyMap" = type { %"class.std::unique_ptr" }
%"class.std::unique_ptr" = type { %"struct.std::__uniq_ptr_data" }
%"struct.std::__uniq_ptr_data" = type { %"class.std::__uniq_ptr_impl" }
%"class.std::__uniq_ptr_impl" = type { %"class.std::tuple" }
%"class.std::tuple" = type { %"struct.std::_Tuple_impl" }
%"struct.std::_Tuple_impl" = type { %"struct.std::_Head_base.1" }
%"struct.std::_Head_base.1" = type { ptr }

@_ZN5osgeo4proj6common16IdentifiedObject8NAME_KEYB5cxx11E = external global %"class.std::__cxx11::basic_string", align 8
@_ZN5osgeo4proj8metadata10Identifier13CODESPACE_KEYB5cxx11E = external global %"class.std::__cxx11::basic_string", align 8
@_ZN5osgeo4proj8metadata10Identifier4EPSGB5cxx11E = external global %"class.std::__cxx11::basic_string", align 8
@_ZN5osgeo4proj8metadata10Identifier8CODE_KEYB5cxx11E = external global %"class.std::__cxx11::basic_string", align 8

; Function Attrs: mustprogress uwtable
define hidden void @_ZN5osgeo4proj9operation21createMapNameEPSGCodeERKNSt7__cxx1112basic_stringIcSt11char_traitsIcESaIcEEEi(ptr dead_on_unwind noalias writable sret(%"class.osgeo::proj::util::PropertyMap") align 8 %0, ptr noundef nonnull align 8 dereferenceable(32) %1, i32 noundef %2) #0 personality ptr @__gxx_personality_v0 {
  %4 = alloca ptr, align 8
  %5 = alloca ptr, align 8
  %6 = alloca i32, align 4
  %7 = alloca %"class.osgeo::proj::util::PropertyMap", align 8
  %8 = alloca ptr, align 8
  %9 = alloca i32, align 4
  store ptr %0, ptr %4, align 8
  store ptr %1, ptr %5, align 8, !tbaa !19
  store i32 %2, ptr %6, align 4, !tbaa !3
  call void @llvm.lifetime.start.p0(i64 8, ptr %7) #9
  call void @_ZN5osgeo4proj4util11PropertyMapC1Ev(ptr noundef nonnull align 8 dereferenceable(8) %7)
  %10 = load ptr, ptr %5, align 8, !tbaa !19
  %11 = invoke noundef nonnull align 8 dereferenceable(8) ptr @_ZN5osgeo4proj4util11PropertyMap3setERKNSt7__cxx1112basic_stringIcSt11char_traitsIcESaIcEEESA_(ptr noundef nonnull align 8 dereferenceable(8) %7, ptr noundef nonnull align 8 dereferenceable(32) @_ZN5osgeo4proj6common16IdentifiedObject8NAME_KEYB5cxx11E, ptr noundef nonnull align 8 dereferenceable(32) %10)
          to label %12 unwind label %19

12:                                               ; preds = %3
  %13 = invoke noundef nonnull align 8 dereferenceable(8) ptr @_ZN5osgeo4proj4util11PropertyMap3setERKNSt7__cxx1112basic_stringIcSt11char_traitsIcESaIcEEESA_(ptr noundef nonnull align 8 dereferenceable(8) %11, ptr noundef nonnull align 8 dereferenceable(32) @_ZN5osgeo4proj8metadata10Identifier13CODESPACE_KEYB5cxx11E, ptr noundef nonnull align 8 dereferenceable(32) @_ZN5osgeo4proj8metadata10Identifier4EPSGB5cxx11E)
          to label %14 unwind label %19

14:                                               ; preds = %12
  %15 = load i32, ptr %6, align 4, !tbaa !3
  %16 = invoke noundef nonnull align 8 dereferenceable(8) ptr @_ZN5osgeo4proj4util11PropertyMap3setERKNSt7__cxx1112basic_stringIcSt11char_traitsIcESaIcEEEi(ptr noundef nonnull align 8 dereferenceable(8) %13, ptr noundef nonnull align 8 dereferenceable(32) @_ZN5osgeo4proj8metadata10Identifier8CODE_KEYB5cxx11E, i32 noundef %15)
          to label %17 unwind label %19

17:                                               ; preds = %14
  invoke void @_ZN5osgeo4proj4util11PropertyMapC1ERKS2_(ptr noundef nonnull align 8 dereferenceable(8) %0, ptr noundef nonnull align 8 dereferenceable(8) %16)
          to label %18 unwind label %19

18:                                               ; preds = %17
  call void @_ZN5osgeo4proj4util11PropertyMapD1Ev(ptr noundef nonnull align 8 dereferenceable(8) %7) #9
  call void @llvm.lifetime.end.p0(i64 8, ptr %7) #9
  ret void

19:                                               ; preds = %17, %14, %12, %3
  %20 = landingpad { ptr, i32 }
          cleanup
  %21 = extractvalue { ptr, i32 } %20, 0
  store ptr %21, ptr %8, align 8
  %22 = extractvalue { ptr, i32 } %20, 1
  store i32 %22, ptr %9, align 4
  call void @_ZN5osgeo4proj4util11PropertyMapD1Ev(ptr noundef nonnull align 8 dereferenceable(8) %7) #9
  call void @llvm.lifetime.end.p0(i64 8, ptr %7) #9
  br label %23

23:                                               ; preds = %19
  %24 = load ptr, ptr %8, align 8
  %25 = load i32, ptr %9, align 4
  %26 = insertvalue { ptr, i32 } poison, ptr %24, 0
  %27 = insertvalue { ptr, i32 } %26, i32 %25, 1
  resume { ptr, i32 } %27
}